target datalayout = "e-m:e-p270:32:32-p271:32:32-p272:64:64-i64:64-i128:128-f80:128-n8:16:32:64-S128"
target triple = "x86_64-unknown-linux-gnu"

%"class.base::BasicStringPiece" = type { ptr, i64 }

; Function Attrs: mustprogress uwtable
define dso_local noundef zeroext i1 @_ZNK4base15DictionaryValue29GetStringWithoutPathExpansionENS_16BasicStringPieceINSt7__cxx1112basic_stringIcSt11char_traitsIcESaIcEEEEEPS7_(ptr noundef nonnull align 8 dereferenceable(64) %this, ptr %key.coerce0, i64 %key.coerce1, ptr noundef %out_value) #2 align 2 {
entry:
  %retval = alloca i1, align 1
  %key = alloca %"class.base::BasicStringPiece", align 8
  %this.addr = alloca ptr, align 8
  %out_value.addr = alloca ptr, align 8
  %value = alloca ptr, align 8
  %agg.tmp = alloca %"class.base::BasicStringPiece", align 8
  %0 = getelementptr inbounds { ptr, i64 }, ptr %key, i32 0, i32 0
  store ptr %key.coerce0, ptr %0, align 8
  %1 = getelementptr inbounds { ptr, i64 }, ptr %key, i32 0, i32 1
  store i64 %key.coerce1, ptr %1, align 8
  store ptr %this, ptr %this.addr, align 8
  store ptr %out_value, ptr %out_value.addr, align 8
  %this1 = load ptr, ptr %this.addr, align 8
  call void @llvm.memcpy.p0.p0.i64(ptr align 8 %agg.tmp, ptr align 8 %key, i64 16, i1 false)
  %2 = getelementptr inbounds { ptr, i64 }, ptr %agg.tmp, i32 0, i32 0
  %3 = load ptr, ptr %2, align 8
  %4 = getelementptr inbounds { ptr, i64 }, ptr %agg.tmp, i32 0, i32 1
  %5 = load i64, ptr %4, align 8
  %call = call noundef zeroext i1 @_ZNK4base15DictionaryValue23GetWithoutPathExpansionENS_16BasicStringPieceINSt7__cxx1112basic_stringIcSt11char_traitsIcESaIcEEEEEPPKNS_5ValueE(ptr noundef nonnull align 8 dereferenceable(64) %this1, ptr %3, i64 %5, ptr noundef %value)
  br i1 %call, label %if.end, label %if.then

if.then:                                          ; preds = %entry
  store i1 false, ptr %retval, align 1
  br label %return

if.end:                                           ; preds = %entry
  %6 = load ptr, ptr %value, align 8
  %7 = load ptr, ptr %out_value.addr, align 8
  %vtable = load ptr, ptr %6, align 8
  %vfn = getelementptr inbounds ptr, ptr %vtable, i64 5
  %8 = load ptr, ptr %vfn, align 8
  %call2 = call noundef zeroext i1 %8(ptr noundef nonnull align 8 dereferenceable(12) %6, ptr noundef %7)
  store i1 %call2, ptr %retval, align 1
  br label %return

return:                                           ; preds = %if.end, %if.then
  %9 = load i1, ptr %retval, align 1
  ret i1 %9
}